Certificate:
    Data:
        Version: 3 (0x2)
        Serial Number: 3 (0x3)
        Signature Algorithm: sha1WithRSAEncryption
        Issuer: C=BA, ST=Republika Srpska, L=Banja Luka, O=Elektrotehnicki fakultet, OU=Katedra za racunarstvo i informatiku, CN=CA/emailAddress=ca@mail.com
        Validity
            Not Before: Feb 13 10:42:54 2021 GMT
            Not After : Feb 13 10:42:54 2022 GMT
        Subject: C=BA, ST=Republika Srpska, L=Banja Luka, O=Elektrotehnicki fakultet, OU=Katedra za racunarstvo i informatiku, CN=admin/emailAddress=admin@mail.com
        Subject Public Key Info:
            Public Key Algorithm: rsaEncryption
                RSA Public-Key: (2048 bit)
                Modulus:
                    00:98:64:d8:64:ee:df:4c:dd:02:17:dc:5b:b5:bf:
                    68:7e:1f:47:04:a6:f1:9c:32:fd:95:76:2f:5d:b8:
                    5a:0a:40:26:28:34:4b:cc:b6:5c:9b:94:f2:cc:33:
                    92:c6:d4:b4:89:e3:0d:41:24:d4:a2:0e:07:ef:cd:
                    39:7c:14:94:81:48:ee:88:38:2c:b8:8f:b5:d9:38:
                    8f:84:1f:97:a3:b8:09:75:bb:93:b9:0f:5f:54:38:
                    66:cf:ca:8c:f1:43:14:45:6e:79:39:fc:26:9e:a8:
                    7b:81:c8:81:82:c0:ca:2f:6d:7d:66:60:2b:7d:bf:
                    03:c7:cc:cf:6e:a8:a8:10:f4:5a:ec:00:09:76:1a:
                    30:40:a0:67:4e:4b:21:7c:fc:69:c4:fe:62:4d:97:
                    74:1b:70:71:c8:38:cb:ad:1b:17:c5:ce:6e:ef:84:
                    ca:ff:2d:e6:1d:9e:ce:3c:91:18:bb:7c:84:65:5b:
                    4d:8c:dd:27:d4:3a:e4:2b:c5:56:50:b7:80:61:8b:
                    7e:ab:47:91:2a:d9:d4:2b:0f:44:88:51:9c:d9:d3:
                    61:20:df:1c:be:a9:ac:45:6d:0d:b8:a6:33:e2:c6:
                    a3:38:13:97:9d:50:4c:ca:c7:1a:a9:0c:2a:fd:db:
                    06:c7:49:7f:ac:21:74:d6:a6:71:be:5a:9e:68:95:
                    2f:e3
                Exponent: 65537 (0x10001)
        X509v3 extensions:
            X509v3 Basic Constraints: 
                CA:FALSE
            X509v3 Key Usage: 
                Digital Signature, Non Repudiation, Data Encipherment, Key Agreement
            X509v3 Extended Key Usage: 
                TLS Web Client Authentication
            Netscape Comment: 
                OpenSSL Generated Certificate
            X509v3 Subject Key Identifier: 
                88:75:2B:76:64:0E:3A:2B:CC:96:94:D7:1D:69:16:75:40:50:74:BB
            X509v3 Authority Key Identifier: 
                keyid:41:47:A0:7B:7D:A5:20:A7:A5:B5:DC:2E:F5:25:59:38:1A:87:5C:A3

    Signature Algorithm: sha1WithRSAEncryption
         55:35:3d:a5:b4:38:f5:cc:95:2a:7f:cb:93:ca:f0:f4:de:4b:
         62:1b:b7:90:de:88:6d:1f:12:d6:c8:bd:71:d5:3e:d3:1b:8e:
         23:7b:66:4e:53:53:14:a1:fc:b6:68:07:4b:da:c4:91:cb:fa:
         c8:c9:e8:6a:7d:5d:7d:6f:64:34:ca:16:47:0f:d5:63:e2:b3:
         e3:b1:a3:7d:a1:76:0a:8d:20:06:13:da:55:ef:29:a3:65:3e:
         33:7c:1c:70:98:d5:ff:10:aa:bc:84:bb:02:a3:28:50:a0:cb:
         20:69:52:2a:79:3a:8d:4a:9b:e0:9d:44:c3:87:a9:a8:ed:d3:
         54:19:48:b8:9a:01:f1:61:97:74:e7:5b:59:10:cb:31:68:b1:
         05:66:87:4d:9e:3a:a1:57:d5:a4:f2:ab:76:45:91:42:8a:66:
         5e:ae:4f:d2:d7:75:96:64:28:5f:75:6c:6e:ff:9a:c8:dc:92:
         1d:af:e5:a7:1c:9e:ea:1b:49:0e:ab:b6:7a:11:c3:46:03:61:
         59:ca:0e:c0:e2:8d:e5:22:ac:8e:5a:b1:96:29:a5:75:b9:27:
         02:6a:d2:b8:cc:79:cd:eb:8c:3b:7b:1d:4d:8f:04:f7:33:af:
         82:af:ff:d2:be:39:84:a1:6c:71:5b:81:39:22:06:ca:31:2d:
         63:a7:1d:99
-----BEGIN CERTIFICATE-----
MIIEkjCCA3qgAwIBAgIBAzANBgkqhkiG9w0BAQUFADCBuDELMAkGA1UEBhMCQkEx
GTAXBgNVBAgTEFJlcHVibGlrYSBTcnBza2ExEzARBgNVBAcTCkJhbmphIEx1a2Ex
ITAfBgNVBAoTGEVsZWt0cm90ZWhuaWNraSBmYWt1bHRldDEtMCsGA1UECxMkS2F0
ZWRyYSB6YSByYWN1bmFyc3R2byBpIGluZm9ybWF0aWt1MQswCQYDVQQDEwJDQTEa
MBgGCSqGSIb3DQEJARYLY2FAbWFpbC5jb20wHhcNMjEwMjEzMTA0MjU0WhcNMjIw
MjEzMTA0MjU0WjCBvjELMAkGA1UEBhMCQkExGTAXBgNVBAgTEFJlcHVibGlrYSBT
cnBza2ExEzARBgNVBAcTCkJhbmphIEx1a2ExITAfBgNVBAoTGEVsZWt0cm90ZWhu
aWNraSBmYWt1bHRldDEtMCsGA1UECxMkS2F0ZWRyYSB6YSByYWN1bmFyc3R2byBp
IGluZm9ybWF0aWt1MQ4wDAYDVQQDEwVhZG1pbjEdMBsGCSqGSIb3DQEJARYOYWRt
aW5AbWFpbC5jb20wggEiMA0GCSqGSIb3DQEBAQUAA4IBDwAwggEKAoIBAQCYZNhk
7t9M3QIX3Fu1v2h+H0cEpvGcMv2Vdi9duFoKQCYoNEvMtlyblPLMM5LG1LSJ4w1B
JNSiDgfvzTl8FJSBSO6IOCy4j7XZOI+EH5ejuAl1u5O5D19UOGbPyozxQxRFbnk5
/CaeqHuByIGCwMovbX1mYCt9vwPHzM9uqKgQ9FrsAAl2GjBAoGdOSyF8/GnE/mJN
l3QbcHHIOMutGxfFzm7vhMr/LeYdns48kRi7fIRlW02M3SfUOuQrxVZQt4Bhi36r
R5Eq2dQrD0SIUZzZ02Eg3xy+qaxFbQ24pjPixqM4E5edUEzKxxqpDCr92wbHSX+s
IXTWpnG+Wp5olS/jAgMBAAGjgZ4wgZswCQYDVR0TBAIwADALBgNVHQ8EBAMCA9gw
EwYDVR0lBAwwCgYIKwYBBQUHAwIwLAYJYIZIAYb4QgENBB8WHU9wZW5TU0wgR2Vu
ZXJhdGVkIENlcnRpZmljYXRlMB0GA1UdDgQWBBSIdSt2ZA46K8yWlNcdaRZ1QFB0
uzAfBgNVHSMEGDAWgBRBR6B7faUgp6W13C71JVk4GodcozANBgkqhkiG9w0BAQUF
AAOCAQEAVTU9pbQ49cyVKn/Lk8rw9N5LYhu3kN6IbR8S1si9cdU+0xuOI3tmTlNT
FKH8tmgHS9rEkcv6yMnoan1dfW9kNMoWRw/VY+Kz47GjfaF2Co0gBhPaVe8po2U+
M3wccJjV/xCqvIS7AqMoUKDLIGlSKnk6jUqb4J1Ew4epqO3TVBlIuJoB8WGXdOdb
WRDLMWixBWaHTZ46oVfVpPKrdkWRQopmXq5P0td1lmQoX3Vsbv+ayNySHa/lpxye
6htJDqu2ehHDRgNhWcoOwOKN5SKsjlqxlimldbknAmrSuMx5zeuMO3sdTY8E9zOv
gq//0r45hKFscVuBOSIGyjEtY6cdmQ==
-----END CERTIFICATE-----
