Certificate:
    Data:
        Version: 3 (0x2)
        Serial Number: 5 (0x5)
        Signature Algorithm: sha1WithRSAEncryption
        Issuer: C=BA, ST=Republika Srpska, L=Banja Luka, O=Elektrotehnicki fakultet, OU=Katedra za racunarstvo i informatiku, CN=CA/emailAddress=ca@mail.com
        Validity
            Not Before: Feb 19 12:49:24 2021 GMT
            Not After : Feb 19 12:49:24 2022 GMT
        Subject: C=BA, ST=Republika Srpska, L=Banja Luka, O=Elektrotehnicki fakultet, OU=Katedra za racunarstvo i informatiku, CN=aleksandar/emailAddress=aleksandar@mail.com
        Subject Public Key Info:
            Public Key Algorithm: rsaEncryption
                RSA Public-Key: (2048 bit)
                Modulus:
                    00:cf:bf:7e:69:46:c2:95:f2:7d:e9:94:16:4a:97:
                    a2:a7:09:f1:13:de:93:c6:ea:ee:77:ed:ee:96:d7:
                    e5:4d:f3:72:4a:07:16:be:a0:90:19:d8:06:8a:3b:
                    92:a8:b1:e8:57:28:27:9c:3f:8b:40:a3:1e:f6:b9:
                    7a:7d:d5:0f:e9:ed:36:f8:94:64:60:ee:ab:55:0d:
                    c1:b6:df:b3:56:35:5b:2c:cf:c2:32:97:7c:e6:8b:
                    88:af:29:19:84:43:fc:41:f1:58:ce:07:07:75:35:
                    f1:0a:c2:54:31:88:9f:44:68:5b:a2:93:de:e0:4f:
                    c2:79:ab:b4:31:68:c7:a8:e4:f4:fb:34:67:4a:15:
                    49:74:84:57:79:b4:a9:02:fe:5d:b2:ad:46:b6:99:
                    8a:08:de:25:19:0d:ee:40:9a:d0:9a:85:83:22:1d:
                    7f:55:3b:c0:c9:4c:87:2b:48:5d:09:6a:1d:f7:5f:
                    ae:f4:58:79:38:9d:68:98:fa:7f:f0:83:bf:3b:70:
                    bc:a6:78:a7:53:73:45:2d:e1:7d:eb:0e:2c:ee:d9:
                    7a:b9:30:fa:de:e2:7f:23:ab:36:7a:81:61:16:06:
                    ef:9c:8b:a8:a7:02:53:de:e4:f2:44:cf:7b:66:68:
                    a5:fb:92:63:a7:9b:ef:67:1f:4b:21:db:ea:a3:d4:
                    a6:71
                Exponent: 65537 (0x10001)
        X509v3 extensions:
            X509v3 Basic Constraints: 
                CA:FALSE
            X509v3 Key Usage: 
                Digital Signature, Non Repudiation, Data Encipherment, Key Agreement
            X509v3 Extended Key Usage: 
                TLS Web Client Authentication
            Netscape Comment: 
                OpenSSL Generated Certificate
            X509v3 Subject Key Identifier: 
                2E:BB:A4:49:BA:7D:F0:78:56:FD:2D:48:68:1B:8C:CD:43:AA:E7:20
            X509v3 Authority Key Identifier: 
                keyid:41:47:A0:7B:7D:A5:20:A7:A5:B5:DC:2E:F5:25:59:38:1A:87:5C:A3

    Signature Algorithm: sha1WithRSAEncryption
         93:dc:03:b8:71:27:db:27:e8:4c:ae:e4:7a:fd:02:05:c1:a2:
         c3:75:9b:77:b0:c8:5c:5e:d3:d9:5f:ba:14:78:0e:1e:cf:e8:
         62:95:0a:ba:7a:10:19:27:0c:7b:f2:64:dd:26:b4:d3:33:db:
         8a:ac:70:bf:f8:f7:37:4f:a7:60:ff:f4:94:07:6a:4c:83:ac:
         48:f1:a7:f1:a2:9a:f5:e0:d4:82:cf:01:5b:1d:ff:38:43:21:
         4f:1f:4d:8a:a9:02:c5:0c:9d:6f:66:ec:d0:06:a6:0a:1a:00:
         8f:6b:5a:96:a7:d4:73:ab:f7:eb:6e:fc:e4:66:6b:d3:4b:52:
         ac:ec:3d:d0:37:5c:d8:c6:b0:88:22:8b:9e:e6:de:99:20:6b:
         0a:a3:dd:f1:14:9b:64:f2:63:b5:f1:22:7d:05:79:3b:12:42:
         4f:2b:73:46:bb:c2:0c:f2:91:38:4f:54:c0:c1:96:38:f6:8c:
         87:97:c2:7f:ae:02:08:8e:22:01:99:a8:b0:b9:3a:26:db:7b:
         76:ae:da:ec:61:29:0f:88:e0:af:df:fb:f6:74:c5:74:8a:dd:
         b6:17:15:7f:cb:ed:98:29:26:1e:8c:a0:76:8f:23:af:0b:36:
         97:d6:2b:e2:f5:3a:7a:e7:63:34:26:0b:86:6a:43:4d:34:c8:
         bb:d9:92:7f
-----BEGIN CERTIFICATE-----
MIIEnDCCA4SgAwIBAgIBBTANBgkqhkiG9w0BAQUFADCBuDELMAkGA1UEBhMCQkEx
GTAXBgNVBAgTEFJlcHVibGlrYSBTcnBza2ExEzARBgNVBAcTCkJhbmphIEx1a2Ex
ITAfBgNVBAoTGEVsZWt0cm90ZWhuaWNraSBmYWt1bHRldDEtMCsGA1UECxMkS2F0
ZWRyYSB6YSByYWN1bmFyc3R2byBpIGluZm9ybWF0aWt1MQswCQYDVQQDEwJDQTEa
MBgGCSqGSIb3DQEJARYLY2FAbWFpbC5jb20wHhcNMjEwMjE5MTI0OTI0WhcNMjIw
MjE5MTI0OTI0WjCByDELMAkGA1UEBhMCQkExGTAXBgNVBAgTEFJlcHVibGlrYSBT
cnBza2ExEzARBgNVBAcTCkJhbmphIEx1a2ExITAfBgNVBAoTGEVsZWt0cm90ZWhu
aWNraSBmYWt1bHRldDEtMCsGA1UECxMkS2F0ZWRyYSB6YSByYWN1bmFyc3R2byBp
IGluZm9ybWF0aWt1MRMwEQYDVQQDEwphbGVrc2FuZGFyMSIwIAYJKoZIhvcNAQkB
FhNhbGVrc2FuZGFyQG1haWwuY29tMIIBIjANBgkqhkiG9w0BAQEFAAOCAQ8AMIIB
CgKCAQEAz79+aUbClfJ96ZQWSpeipwnxE96Txurud+3ultflTfNySgcWvqCQGdgG
ijuSqLHoVygnnD+LQKMe9rl6fdUP6e02+JRkYO6rVQ3Btt+zVjVbLM/CMpd85ouI
rykZhEP8QfFYzgcHdTXxCsJUMYifRGhbopPe4E/Ceau0MWjHqOT0+zRnShVJdIRX
ebSpAv5dsq1GtpmKCN4lGQ3uQJrQmoWDIh1/VTvAyUyHK0hdCWod91+u9Fh5OJ1o
mPp/8IO/O3C8pninU3NFLeF96w4s7tl6uTD63uJ/I6s2eoFhFgbvnIuopwJT3uTy
RM97Zmil+5Jjp5vvZx9LIdvqo9SmcQIDAQABo4GeMIGbMAkGA1UdEwQCMAAwCwYD
VR0PBAQDAgPYMBMGA1UdJQQMMAoGCCsGAQUFBwMCMCwGCWCGSAGG+EIBDQQfFh1P
cGVuU1NMIEdlbmVyYXRlZCBDZXJ0aWZpY2F0ZTAdBgNVHQ4EFgQULrukSbp98HhW
/S1IaBuMzUOq5yAwHwYDVR0jBBgwFoAUQUege32lIKeltdwu9SVZOBqHXKMwDQYJ
KoZIhvcNAQEFBQADggEBAJPcA7hxJ9sn6Eyu5Hr9AgXBosN1m3ewyFxe09lfuhR4
Dh7P6GKVCrp6EBknDHvyZN0mtNMz24qscL/49zdPp2D/9JQHakyDrEjxp/GimvXg
1ILPAVsd/zhDIU8fTYqpAsUMnW9m7NAGpgoaAI9rWpan1HOr9+tu/ORma9NLUqzs
PdA3XNjGsIgii57m3pkgawqj3fEUm2TyY7XxIn0FeTsSQk8rc0a7wgzykThPVMDB
ljj2jIeXwn+uAgiOIgGZqLC5Oibbe3au2uxhKQ+I4K/f+/Z0xXSK3bYXFX/L7Zgp
Jh6MoHaPI68LNpfWK+L1OnrnYzQmC4ZqQ000yLvZkn8=
-----END CERTIFICATE-----
