Certificate:
    Data:
        Version: 3 (0x2)
        Serial Number: 1 (0x1)
        Signature Algorithm: sha1WithRSAEncryption
        Issuer: C=BA, ST=Republika Srpska, L=Banja Luka, O=Elektrotehnicki fakultet, OU=Katedra za racunarstvo i informatiku, CN=CA/emailAddress=ca@mail.com
        Validity
            Not Before: Feb 13 10:42:20 2021 GMT
            Not After : Feb 13 10:42:20 2022 GMT
        Subject: C=BA, ST=Republika Srpska, L=Banja Luka, O=Elektrotehnicki fakultet, OU=Katedra za racunarstvo i informatiku, CN=jelena/emailAddress=jelena@mail.com
        Subject Public Key Info:
            Public Key Algorithm: rsaEncryption
                RSA Public-Key: (2048 bit)
                Modulus:
                    00:a7:4b:a6:73:a2:1e:98:a2:65:61:bb:fb:e7:93:
                    7a:7d:ce:e5:4b:fd:b6:9d:d1:59:4b:53:68:38:ae:
                    f6:79:41:69:53:18:ec:9d:0c:7b:7e:35:8b:58:58:
                    79:3e:90:d8:8a:11:26:e3:86:a9:2f:c5:17:98:07:
                    8a:ee:19:f2:59:7d:6a:38:03:7c:6e:47:df:56:98:
                    b0:47:f2:c9:fb:06:27:bb:17:01:ad:0a:ce:eb:fc:
                    bc:03:a4:a3:80:35:40:fe:55:ed:95:f6:b4:d4:76:
                    87:0b:08:83:14:92:7a:d5:2f:e9:3c:8c:ec:19:44:
                    7e:c9:16:8c:67:20:70:53:5a:26:97:78:d4:f3:d8:
                    dd:8c:cf:60:dc:3b:a9:1f:ce:94:2e:3c:00:1e:22:
                    51:61:0f:c3:2e:49:3b:8e:e5:03:81:b0:cd:31:0b:
                    8b:48:56:6b:6a:10:44:e6:75:bb:25:f2:db:f7:39:
                    d8:fc:74:c2:4f:94:62:5e:9e:ac:2c:9f:b1:71:d9:
                    96:2a:1b:11:9d:4a:c3:a5:fe:8f:c2:2f:72:8c:6c:
                    c7:42:32:75:b1:96:8d:98:1f:6c:ad:ba:65:d9:0f:
                    a0:45:de:de:ae:c6:0a:f2:9c:af:64:0b:b7:95:fd:
                    89:d7:f3:17:d1:7c:b3:ff:0c:90:32:01:e9:08:c4:
                    62:0d
                Exponent: 65537 (0x10001)
        X509v3 extensions:
            X509v3 Basic Constraints: 
                CA:FALSE
            X509v3 Key Usage: 
                Digital Signature, Non Repudiation, Data Encipherment, Key Agreement
            X509v3 Extended Key Usage: 
                TLS Web Client Authentication
            Netscape Comment: 
                OpenSSL Generated Certificate
            X509v3 Subject Key Identifier: 
                8D:BE:5B:74:04:1F:70:91:66:B8:56:CF:95:72:3C:E2:72:4E:A9:E8
            X509v3 Authority Key Identifier: 
                keyid:41:47:A0:7B:7D:A5:20:A7:A5:B5:DC:2E:F5:25:59:38:1A:87:5C:A3

    Signature Algorithm: sha1WithRSAEncryption
         18:ad:96:d0:c2:c7:06:f1:9f:34:e0:e7:dd:78:af:7e:dd:9b:
         27:d4:cf:13:c1:66:b8:bf:c1:63:10:1f:40:80:e6:0a:f5:43:
         f2:67:62:23:23:b1:af:bf:35:4e:26:9c:33:6c:d3:fb:f6:e9:
         26:13:50:29:66:7d:4e:e7:93:f4:f4:90:4c:31:b9:c9:2a:f6:
         c0:b9:9e:3d:66:c1:2e:bc:94:b5:04:6d:78:0f:fd:02:96:ad:
         c8:3d:5d:9a:6a:76:b5:56:28:19:67:1b:fd:c5:3a:c3:f2:3f:
         2d:13:6f:c2:51:e5:4c:a3:de:ab:52:f0:43:78:db:b2:bd:f4:
         7d:f3:d2:97:48:fc:0f:66:e5:d0:96:fc:57:bc:81:60:cc:c3:
         1a:a8:b0:3f:b8:1b:0c:ff:20:72:fa:43:b4:7a:b5:10:c1:46:
         d6:cc:1b:e6:26:0a:e2:38:6a:89:f5:26:cf:6d:62:f2:02:90:
         37:51:10:42:1a:5a:6d:c6:bf:81:54:3c:4f:aa:ba:41:13:09:
         ac:c1:e5:de:dc:d1:2f:95:ef:3a:94:58:d0:ee:0b:d6:1f:30:
         57:99:8b:0e:1a:b1:09:25:6e:70:03:6d:54:b8:47:25:4f:1b:
         62:1e:38:e8:7c:91:22:2f:6e:22:53:8c:11:5f:98:c7:2f:84:
         88:38:1e:e8
-----BEGIN CERTIFICATE-----
MIIElDCCA3ygAwIBAgIBATANBgkqhkiG9w0BAQUFADCBuDELMAkGA1UEBhMCQkEx
GTAXBgNVBAgTEFJlcHVibGlrYSBTcnBza2ExEzARBgNVBAcTCkJhbmphIEx1a2Ex
ITAfBgNVBAoTGEVsZWt0cm90ZWhuaWNraSBmYWt1bHRldDEtMCsGA1UECxMkS2F0
ZWRyYSB6YSByYWN1bmFyc3R2byBpIGluZm9ybWF0aWt1MQswCQYDVQQDEwJDQTEa
MBgGCSqGSIb3DQEJARYLY2FAbWFpbC5jb20wHhcNMjEwMjEzMTA0MjIwWhcNMjIw
MjEzMTA0MjIwWjCBwDELMAkGA1UEBhMCQkExGTAXBgNVBAgTEFJlcHVibGlrYSBT
cnBza2ExEzARBgNVBAcTCkJhbmphIEx1a2ExITAfBgNVBAoTGEVsZWt0cm90ZWhu
aWNraSBmYWt1bHRldDEtMCsGA1UECxMkS2F0ZWRyYSB6YSByYWN1bmFyc3R2byBp
IGluZm9ybWF0aWt1MQ8wDQYDVQQDEwZqZWxlbmExHjAcBgkqhkiG9w0BCQEWD2pl
bGVuYUBtYWlsLmNvbTCCASIwDQYJKoZIhvcNAQEBBQADggEPADCCAQoCggEBAKdL
pnOiHpiiZWG7++eTen3O5Uv9tp3RWUtTaDiu9nlBaVMY7J0Me341i1hYeT6Q2IoR
JuOGqS/FF5gHiu4Z8ll9ajgDfG5H31aYsEfyyfsGJ7sXAa0Kzuv8vAOko4A1QP5V
7ZX2tNR2hwsIgxSSetUv6TyM7BlEfskWjGcgcFNaJpd41PPY3YzPYNw7qR/OlC48
AB4iUWEPwy5JO47lA4GwzTELi0hWa2oQROZ1uyXy2/c52Px0wk+UYl6erCyfsXHZ
liobEZ1Kw6X+j8Ivcoxsx0IydbGWjZgfbK26ZdkPoEXe3q7GCvKcr2QLt5X9idfz
F9F8s/8MkDIB6QjEYg0CAwEAAaOBnjCBmzAJBgNVHRMEAjAAMAsGA1UdDwQEAwID
2DATBgNVHSUEDDAKBggrBgEFBQcDAjAsBglghkgBhvhCAQ0EHxYdT3BlblNTTCBH
ZW5lcmF0ZWQgQ2VydGlmaWNhdGUwHQYDVR0OBBYEFI2+W3QEH3CRZrhWz5VyPOJy
TqnoMB8GA1UdIwQYMBaAFEFHoHt9pSCnpbXcLvUlWTgah1yjMA0GCSqGSIb3DQEB
BQUAA4IBAQAYrZbQwscG8Z804OfdeK9+3Zsn1M8TwWa4v8FjEB9AgOYK9UPyZ2Ij
I7GvvzVOJpwzbNP79ukmE1ApZn1O55P09JBMMbnJKvbAuZ49ZsEuvJS1BG14D/0C
lq3IPV2aana1VigZZxv9xTrD8j8tE2/CUeVMo96rUvBDeNuyvfR989KXSPwPZuXQ
lvxXvIFgzMMaqLA/uBsM/yBy+kO0erUQwUbWzBvmJgriOGqJ9SbPbWLyApA3URBC
Glptxr+BVDxPqrpBEwmsweXe3NEvle86lFjQ7gvWHzBXmYsOGrEJJW5wA21UuEcl
TxtiHjjofJEiL24iU4wRX5jHL4SIOB7o
-----END CERTIFICATE-----
