Certificate:
    Data:
        Version: 3 (0x2)
        Serial Number: 2 (0x2)
        Signature Algorithm: sha1WithRSAEncryption
        Issuer: C=BA, ST=Republika Srpska, L=Banja Luka, O=Elektrotehnicki fakultet, OU=Katedra za racunarstvo i informatiku, CN=CA/emailAddress=ca@mail.com
        Validity
            Not Before: Feb 13 10:42:40 2021 GMT
            Not After : Feb 13 10:42:40 2022 GMT
        Subject: C=BA, ST=Republika Srpska, L=Banja Luka, O=Elektrotehnicki fakultet, OU=Katedra za racunarstvo i informatiku, CN=marko/emailAddress=marko@mail.com
        Subject Public Key Info:
            Public Key Algorithm: rsaEncryption
                RSA Public-Key: (2048 bit)
                Modulus:
                    00:a8:a6:81:73:7e:f2:a6:2d:21:71:e0:7a:86:26:
                    d6:95:61:f9:78:06:0a:36:60:26:34:bd:a8:fa:34:
                    c9:76:3c:c5:27:d4:c8:72:2b:b3:b5:9e:bc:0f:af:
                    7f:b4:6c:b6:3c:4e:0d:9e:c4:3a:d7:03:2f:81:02:
                    9d:f3:8e:24:bb:00:1f:05:c7:e2:80:95:06:88:07:
                    84:c7:db:a5:a2:38:d2:b3:19:dc:f8:03:f7:91:df:
                    92:72:73:29:b3:d9:98:3c:ae:bc:91:25:43:97:4f:
                    e8:3e:bf:1b:a5:01:a6:ac:5b:4a:0e:5e:d9:aa:fd:
                    28:0a:b5:ab:e8:2a:ea:23:97:ff:9a:e2:4b:c3:53:
                    d7:b1:f3:72:39:f4:05:3b:b2:3c:15:4b:1e:29:8c:
                    56:13:fc:eb:ea:ba:c8:d4:fc:a6:7f:e3:e5:85:b9:
                    a8:3a:82:03:93:07:32:f9:de:e5:bc:1f:1a:86:05:
                    f7:c9:81:80:73:e1:e9:a0:69:60:89:1a:3b:a7:e6:
                    b2:d8:61:ec:a0:86:ef:bd:39:64:52:a2:f6:5a:bd:
                    9d:f3:f6:e5:34:4a:5a:64:f9:c1:4e:f1:6c:98:9c:
                    1f:eb:2d:57:e2:74:45:dc:b3:18:1d:16:05:7a:a7:
                    43:8d:80:cd:94:dc:25:83:3d:3a:8c:0f:d8:1a:33:
                    a9:bd
                Exponent: 65537 (0x10001)
        X509v3 extensions:
            X509v3 Basic Constraints: 
                CA:FALSE
            X509v3 Key Usage: 
                Digital Signature, Non Repudiation, Data Encipherment, Key Agreement
            X509v3 Extended Key Usage: 
                TLS Web Client Authentication
            Netscape Comment: 
                OpenSSL Generated Certificate
            X509v3 Subject Key Identifier: 
                3F:BF:5B:22:74:1C:F3:7C:39:6D:E1:3B:18:50:80:5A:8D:6B:AD:5E
            X509v3 Authority Key Identifier: 
                keyid:41:47:A0:7B:7D:A5:20:A7:A5:B5:DC:2E:F5:25:59:38:1A:87:5C:A3

    Signature Algorithm: sha1WithRSAEncryption
         b8:3c:87:4f:98:66:0b:23:f6:5e:eb:06:75:6a:b4:bf:e6:5d:
         6c:dc:c4:46:5e:27:1b:dc:a7:39:f7:fd:be:54:9d:00:ea:b6:
         7e:fa:f6:39:c0:04:83:f2:a0:ff:3f:8b:c7:d9:52:a4:35:b8:
         29:8b:e3:81:93:c4:2d:9c:87:5a:9e:53:85:2c:bd:0a:5f:92:
         8b:6a:b0:93:17:3c:d2:41:8b:ba:d1:00:d2:1a:30:e5:c1:81:
         ae:9b:7c:31:b1:f8:3a:11:13:e1:cd:52:59:c4:94:7c:1e:19:
         2f:df:04:43:23:b5:94:bd:01:9c:8b:c2:c1:e7:d7:17:bd:f1:
         34:44:4a:44:70:0d:3e:2f:96:91:c1:10:f4:b1:18:b9:99:a2:
         19:04:5f:48:42:fc:ff:92:21:1a:87:2b:30:28:dc:83:a4:b9:
         de:d7:0a:44:e3:39:45:f5:57:94:de:00:da:f2:37:c0:37:e6:
         36:99:e2:35:ee:77:1b:05:dd:e9:a6:73:1e:cd:fc:b6:41:8a:
         0c:c0:eb:55:92:7c:fc:69:22:fe:ea:4c:76:c1:c5:d8:c3:06:
         ac:0a:05:ac:e8:6a:c4:0d:86:35:c6:31:9b:f9:68:3a:54:25:
         e3:c4:68:c0:ca:86:08:dc:97:09:a7:1d:0b:32:ce:00:7f:de:
         41:eb:71:63
-----BEGIN CERTIFICATE-----
MIIEkjCCA3qgAwIBAgIBAjANBgkqhkiG9w0BAQUFADCBuDELMAkGA1UEBhMCQkEx
GTAXBgNVBAgTEFJlcHVibGlrYSBTcnBza2ExEzARBgNVBAcTCkJhbmphIEx1a2Ex
ITAfBgNVBAoTGEVsZWt0cm90ZWhuaWNraSBmYWt1bHRldDEtMCsGA1UECxMkS2F0
ZWRyYSB6YSByYWN1bmFyc3R2byBpIGluZm9ybWF0aWt1MQswCQYDVQQDEwJDQTEa
MBgGCSqGSIb3DQEJARYLY2FAbWFpbC5jb20wHhcNMjEwMjEzMTA0MjQwWhcNMjIw
MjEzMTA0MjQwWjCBvjELMAkGA1UEBhMCQkExGTAXBgNVBAgTEFJlcHVibGlrYSBT
cnBza2ExEzARBgNVBAcTCkJhbmphIEx1a2ExITAfBgNVBAoTGEVsZWt0cm90ZWhu
aWNraSBmYWt1bHRldDEtMCsGA1UECxMkS2F0ZWRyYSB6YSByYWN1bmFyc3R2byBp
IGluZm9ybWF0aWt1MQ4wDAYDVQQDEwVtYXJrbzEdMBsGCSqGSIb3DQEJARYObWFy
a29AbWFpbC5jb20wggEiMA0GCSqGSIb3DQEBAQUAA4IBDwAwggEKAoIBAQCopoFz
fvKmLSFx4HqGJtaVYfl4Bgo2YCY0vaj6NMl2PMUn1MhyK7O1nrwPr3+0bLY8Tg2e
xDrXAy+BAp3zjiS7AB8Fx+KAlQaIB4TH26WiONKzGdz4A/eR35Jycymz2Zg8rryR
JUOXT+g+vxulAaasW0oOXtmq/SgKtavoKuojl/+a4kvDU9ex83I59AU7sjwVSx4p
jFYT/OvqusjU/KZ/4+WFuag6ggOTBzL53uW8HxqGBffJgYBz4emgaWCJGjun5rLY
Yeyghu+9OWRSovZavZ3z9uU0Slpk+cFO8WyYnB/rLVfidEXcsxgdFgV6p0ONgM2U
3CWDPTqMD9gaM6m9AgMBAAGjgZ4wgZswCQYDVR0TBAIwADALBgNVHQ8EBAMCA9gw
EwYDVR0lBAwwCgYIKwYBBQUHAwIwLAYJYIZIAYb4QgENBB8WHU9wZW5TU0wgR2Vu
ZXJhdGVkIENlcnRpZmljYXRlMB0GA1UdDgQWBBQ/v1sidBzzfDlt4TsYUIBajWut
XjAfBgNVHSMEGDAWgBRBR6B7faUgp6W13C71JVk4GodcozANBgkqhkiG9w0BAQUF
AAOCAQEAuDyHT5hmCyP2XusGdWq0v+ZdbNzERl4nG9ynOff9vlSdAOq2fvr2OcAE
g/Kg/z+Lx9lSpDW4KYvjgZPELZyHWp5ThSy9Cl+Si2qwkxc80kGLutEA0how5cGB
rpt8MbH4OhET4c1SWcSUfB4ZL98EQyO1lL0BnIvCwefXF73xNERKRHANPi+WkcEQ
9LEYuZmiGQRfSEL8/5IhGocrMCjcg6S53tcKROM5RfVXlN4A2vI3wDfmNpniNe53
GwXd6aZzHs38tkGKDMDrVZJ8/Gki/upMdsHF2MMGrAoFrOhqxA2GNcYxm/loOlQl
48RowMqGCNyXCacdCzLOAH/eQetxYw==
-----END CERTIFICATE-----
