Certificate:
    Data:
        Version: 3 (0x2)
        Serial Number: 4 (0x4)
        Signature Algorithm: sha1WithRSAEncryption
        Issuer: C=BA, ST=Republika Srpska, L=Banja Luka, O=Elektrotehnicki fakultet, OU=Katedra za racunarstvo i informatiku, CN=CA/emailAddress=ca@mail.com
        Validity
            Not Before: Feb 13 10:48:33 2021 GMT
            Not After : Feb 13 10:48:33 2022 GMT
        Subject: C=BA, ST=Republika Srpska, L=Banja Luka, O=Elektrotehnicki fakultet, OU=Katedra za racunarstvo i informatiku, CN=vlade/emailAddress=vlade@mail.com
        Subject Public Key Info:
            Public Key Algorithm: rsaEncryption
                RSA Public-Key: (2048 bit)
                Modulus:
                    00:a8:a6:81:73:7e:f2:a6:2d:21:71:e0:7a:86:26:
                    d6:95:61:f9:78:06:0a:36:60:26:34:bd:a8:fa:34:
                    c9:76:3c:c5:27:d4:c8:72:2b:b3:b5:9e:bc:0f:af:
                    7f:b4:6c:b6:3c:4e:0d:9e:c4:3a:d7:03:2f:81:02:
                    9d:f3:8e:24:bb:00:1f:05:c7:e2:80:95:06:88:07:
                    84:c7:db:a5:a2:38:d2:b3:19:dc:f8:03:f7:91:df:
                    92:72:73:29:b3:d9:98:3c:ae:bc:91:25:43:97:4f:
                    e8:3e:bf:1b:a5:01:a6:ac:5b:4a:0e:5e:d9:aa:fd:
                    28:0a:b5:ab:e8:2a:ea:23:97:ff:9a:e2:4b:c3:53:
                    d7:b1:f3:72:39:f4:05:3b:b2:3c:15:4b:1e:29:8c:
                    56:13:fc:eb:ea:ba:c8:d4:fc:a6:7f:e3:e5:85:b9:
                    a8:3a:82:03:93:07:32:f9:de:e5:bc:1f:1a:86:05:
                    f7:c9:81:80:73:e1:e9:a0:69:60:89:1a:3b:a7:e6:
                    b2:d8:61:ec:a0:86:ef:bd:39:64:52:a2:f6:5a:bd:
                    9d:f3:f6:e5:34:4a:5a:64:f9:c1:4e:f1:6c:98:9c:
                    1f:eb:2d:57:e2:74:45:dc:b3:18:1d:16:05:7a:a7:
                    43:8d:80:cd:94:dc:25:83:3d:3a:8c:0f:d8:1a:33:
                    a9:bd
                Exponent: 65537 (0x10001)
        X509v3 extensions:
            X509v3 Basic Constraints: 
                CA:FALSE
            X509v3 Key Usage: 
                Digital Signature, Non Repudiation, Data Encipherment, Key Agreement
            X509v3 Extended Key Usage: 
                TLS Web Client Authentication
            Netscape Comment: 
                OpenSSL Generated Certificate
            X509v3 Subject Key Identifier: 
                3F:BF:5B:22:74:1C:F3:7C:39:6D:E1:3B:18:50:80:5A:8D:6B:AD:5E
            X509v3 Authority Key Identifier: 
                keyid:41:47:A0:7B:7D:A5:20:A7:A5:B5:DC:2E:F5:25:59:38:1A:87:5C:A3

    Signature Algorithm: sha1WithRSAEncryption
         c2:2e:96:27:39:06:8a:c0:06:63:ae:26:f4:cb:b5:a8:49:cd:
         96:26:a3:6f:f1:f8:83:9c:17:d4:65:f6:b0:6c:28:2d:6c:49:
         65:6d:99:af:29:2f:1d:ba:96:46:3f:76:5f:f9:94:96:83:f0:
         56:93:d9:64:d2:84:36:a0:8e:ff:e7:b0:52:01:b6:eb:9d:67:
         ec:37:b7:58:31:2f:9a:12:fe:64:fa:4e:54:e5:fe:0b:99:9d:
         7f:f6:6a:fd:24:a4:83:b3:67:80:ba:9c:48:d1:50:bf:82:c2:
         4b:0b:af:f8:2e:2e:b6:3e:e7:1b:95:d7:b1:8e:30:ca:fa:44:
         ee:8b:20:0d:64:a3:c8:b2:8d:d1:0e:20:8f:b4:1e:4d:92:a8:
         86:de:98:01:56:d8:b2:be:fd:2b:9a:64:21:08:03:38:84:3e:
         1a:4d:be:ee:73:e3:2a:f8:9e:3e:34:79:c5:c2:ee:75:ca:a2:
         c2:03:24:e0:aa:07:38:4c:ad:03:73:4c:27:4c:54:a9:c1:c0:
         de:f6:f4:38:1b:9b:03:c1:0f:2b:72:5a:76:b9:b7:2c:39:6d:
         23:0d:86:8a:1b:c4:f3:a7:80:1a:e4:80:1b:92:a6:57:7a:ed:
         94:f1:70:0f:20:fd:8c:c7:5c:f7:fa:5b:d1:9b:ce:27:f2:8d:
         6e:73:40:89
-----BEGIN CERTIFICATE-----
MIIEkjCCA3qgAwIBAgIBBDANBgkqhkiG9w0BAQUFADCBuDELMAkGA1UEBhMCQkEx
GTAXBgNVBAgTEFJlcHVibGlrYSBTcnBza2ExEzARBgNVBAcTCkJhbmphIEx1a2Ex
ITAfBgNVBAoTGEVsZWt0cm90ZWhuaWNraSBmYWt1bHRldDEtMCsGA1UECxMkS2F0
ZWRyYSB6YSByYWN1bmFyc3R2byBpIGluZm9ybWF0aWt1MQswCQYDVQQDEwJDQTEa
MBgGCSqGSIb3DQEJARYLY2FAbWFpbC5jb20wHhcNMjEwMjEzMTA0ODMzWhcNMjIw
MjEzMTA0ODMzWjCBvjELMAkGA1UEBhMCQkExGTAXBgNVBAgTEFJlcHVibGlrYSBT
cnBza2ExEzARBgNVBAcTCkJhbmphIEx1a2ExITAfBgNVBAoTGEVsZWt0cm90ZWhu
aWNraSBmYWt1bHRldDEtMCsGA1UECxMkS2F0ZWRyYSB6YSByYWN1bmFyc3R2byBp
IGluZm9ybWF0aWt1MQ4wDAYDVQQDEwV2bGFkZTEdMBsGCSqGSIb3DQEJARYOdmxh
ZGVAbWFpbC5jb20wggEiMA0GCSqGSIb3DQEBAQUAA4IBDwAwggEKAoIBAQCopoFz
fvKmLSFx4HqGJtaVYfl4Bgo2YCY0vaj6NMl2PMUn1MhyK7O1nrwPr3+0bLY8Tg2e
xDrXAy+BAp3zjiS7AB8Fx+KAlQaIB4TH26WiONKzGdz4A/eR35Jycymz2Zg8rryR
JUOXT+g+vxulAaasW0oOXtmq/SgKtavoKuojl/+a4kvDU9ex83I59AU7sjwVSx4p
jFYT/OvqusjU/KZ/4+WFuag6ggOTBzL53uW8HxqGBffJgYBz4emgaWCJGjun5rLY
Yeyghu+9OWRSovZavZ3z9uU0Slpk+cFO8WyYnB/rLVfidEXcsxgdFgV6p0ONgM2U
3CWDPTqMD9gaM6m9AgMBAAGjgZ4wgZswCQYDVR0TBAIwADALBgNVHQ8EBAMCA9gw
EwYDVR0lBAwwCgYIKwYBBQUHAwIwLAYJYIZIAYb4QgENBB8WHU9wZW5TU0wgR2Vu
ZXJhdGVkIENlcnRpZmljYXRlMB0GA1UdDgQWBBQ/v1sidBzzfDlt4TsYUIBajWut
XjAfBgNVHSMEGDAWgBRBR6B7faUgp6W13C71JVk4GodcozANBgkqhkiG9w0BAQUF
AAOCAQEAwi6WJzkGisAGY64m9Mu1qEnNliajb/H4g5wX1GX2sGwoLWxJZW2Zrykv
HbqWRj92X/mUloPwVpPZZNKENqCO/+ewUgG2651n7De3WDEvmhL+ZPpOVOX+C5md
f/Zq/SSkg7NngLqcSNFQv4LCSwuv+C4utj7nG5XXsY4wyvpE7osgDWSjyLKN0Q4g
j7QeTZKoht6YAVbYsr79K5pkIQgDOIQ+Gk2+7nPjKviePjR5xcLudcqiwgMk4KoH
OEytA3NMJ0xUqcHA3vb0OBubA8EPK3Jadrm3LDltIw2GihvE86eAGuSAG5KmV3rt
lPFwDyD9jMdc9/pb0ZvOJ/KNbnNAiQ==
-----END CERTIFICATE-----
